target datalayout = "e-m:e-p270:32:32-p271:32:32-p272:64:64-i64:64-i128:128-f80:128-n8:16:32:64-S128"
target triple = "x86_64-pc-linux-gnu"

%struct.ARKodeMemRec = type { ptr, double, ptr, i32, i32, double, double, ptr, i32, double, ptr, i32, i32, ptr, ptr, i32, ptr, ptr, i32, ptr, ptr, ptr, ptr, ptr, ptr, ptr, ptr, ptr, ptr, ptr, ptr, ptr, ptr, ptr, i32, ptr, ptr, i32, ptr, i32, ptr, ptr, ptr, ptr, ptr, ptr, ptr, ptr, ptr, ptr, ptr, ptr, ptr, ptr, ptr, ptr, ptr, ptr, ptr, ptr, ptr, ptr, ptr, ptr, ptr, ptr, i32, ptr, ptr, ptr, ptr, ptr, ptr, ptr, i32, ptr, ptr, ptr, i32, ptr, ptr, ptr, ptr, ptr, ptr, ptr, i32, i32, i32, i32, double, double, double, double, double, double, double, double, double, double, i32, ptr, i64, i32, i32, i32, i32, i64, i64, i32, i64, i64, i64, i64, i64, i64, i64, double, double, double, double, double, i32, double, double, i32, i32, i32, i32, i32, i32, i32, i32, ptr, i32, ptr, ptr, ptr, ptr, i32, i32, i32 }
%struct.ARKodeRootMemRec = type { ptr, i32, ptr, ptr, double, double, double, ptr, ptr, ptr, double, double, i32, i32, i64, ptr, i32, ptr }

@.str = private unnamed_addr constant [120 x i8] c"generated/home/dtcxzyw/WorkSpace/Projects/compilers/llvm-opt-benchmark/bench/sundials/sundials/src/arkode/arkode_root.c\00", align 1
@.str.1 = private unnamed_addr constant [27 x i8] c"arkode_mem = NULL illegal.\00", align 1
@__func__.arkRootFree = private unnamed_addr constant [12 x i8] c"arkRootFree\00", align 1

; Function Attrs: nounwind uwtable
define i32 @arkRootFree(ptr noundef %0) #0 {
  %2 = alloca i32, align 4
  %3 = alloca ptr, align 8
  %4 = alloca ptr, align 8
  %5 = alloca i32, align 4
  store ptr %0, ptr %3, align 8, !tbaa !3
  call void @llvm.lifetime.start.p0(i64 8, ptr %4) #6
  %6 = load ptr, ptr %3, align 8, !tbaa !3
  %7 = icmp eq ptr %6, null
  br i1 %7, label %8, label %9

8:                                                ; preds = %1
  call void (ptr, i32, i32, ptr, ptr, ptr, ...) @arkProcessError(ptr noundef null, i32 noundef -21, i32 noundef 289, ptr noundef @__func__.arkRootFree, ptr noundef @.str, ptr noundef @.str.1)
  store i32 -21, ptr %2, align 4
  store i32 1, ptr %5, align 4
  br label %112

9:                                                ; preds = %1
  %10 = load ptr, ptr %3, align 8, !tbaa !3
  store ptr %10, ptr %4, align 8, !tbaa !9
  %11 = load ptr, ptr %4, align 8, !tbaa !9
  %12 = getelementptr inbounds nuw %struct.ARKodeMemRec, ptr %11, i32 0, i32 133
  %13 = load ptr, ptr %12, align 8, !tbaa !22
  %14 = icmp ne ptr %13, null
  br i1 %14, label %15, label %111

15:                                               ; preds = %9
  %16 = load ptr, ptr %4, align 8, !tbaa !9
  %17 = getelementptr inbounds nuw %struct.ARKodeMemRec, ptr %16, i32 0, i32 133
  %18 = load ptr, ptr %17, align 8, !tbaa !22
  %19 = getelementptr inbounds nuw %struct.ARKodeRootMemRec, ptr %18, i32 0, i32 1
  %20 = load i32, ptr %19, align 8, !tbaa !32
  %21 = icmp sgt i32 %20, 0
  br i1 %21, label %22, label %99

22:                                               ; preds = %15
  %23 = load ptr, ptr %4, align 8, !tbaa !9
  %24 = getelementptr inbounds nuw %struct.ARKodeMemRec, ptr %23, i32 0, i32 133
  %25 = load ptr, ptr %24, align 8, !tbaa !22
  %26 = getelementptr inbounds nuw %struct.ARKodeRootMemRec, ptr %25, i32 0, i32 7
  %27 = load ptr, ptr %26, align 8, !tbaa !23
  call void @free(ptr noundef %27) #6
  %28 = load ptr, ptr %4, align 8, !tbaa !9
  %29 = getelementptr inbounds nuw %struct.ARKodeMemRec, ptr %28, i32 0, i32 133
  %30 = load ptr, ptr %29, align 8, !tbaa !22
  %31 = getelementptr inbounds nuw %struct.ARKodeRootMemRec, ptr %30, i32 0, i32 7
  store ptr null, ptr %31, align 8, !tbaa !23
  %32 = load ptr, ptr %4, align 8, !tbaa !9
  %33 = getelementptr inbounds nuw %struct.ARKodeMemRec, ptr %32, i32 0, i32 133
  %34 = load ptr, ptr %33, align 8, !tbaa !22
  %35 = getelementptr inbounds nuw %struct.ARKodeRootMemRec, ptr %34, i32 0, i32 8
  %36 = load ptr, ptr %35, align 8, !tbaa !27
  call void @free(ptr noundef %36) #6
  %37 = load ptr, ptr %4, align 8, !tbaa !9
  %38 = getelementptr inbounds nuw %struct.ARKodeMemRec, ptr %37, i32 0, i32 133
  %39 = load ptr, ptr %38, align 8, !tbaa !22
  %40 = getelementptr inbounds nuw %struct.ARKodeRootMemRec, ptr %39, i32 0, i32 8
  store ptr null, ptr %40, align 8, !tbaa !27
  %41 = load ptr, ptr %4, align 8, !tbaa !9
  %42 = getelementptr inbounds nuw %struct.ARKodeMemRec, ptr %41, i32 0, i32 133
  %43 = load ptr, ptr %42, align 8, !tbaa !22
  %44 = getelementptr inbounds nuw %struct.ARKodeRootMemRec, ptr %43, i32 0, i32 9
  %45 = load ptr, ptr %44, align 8, !tbaa !28
  call void @free(ptr noundef %45) #6
  %46 = load ptr, ptr %4, align 8, !tbaa !9
  %47 = getelementptr inbounds nuw %struct.ARKodeMemRec, ptr %46, i32 0, i32 133
  %48 = load ptr, ptr %47, align 8, !tbaa !22
  %49 = getelementptr inbounds nuw %struct.ARKodeRootMemRec, ptr %48, i32 0, i32 9
  store ptr null, ptr %49, align 8, !tbaa !28
  %50 = load ptr, ptr %4, align 8, !tbaa !9
  %51 = getelementptr inbounds nuw %struct.ARKodeMemRec, ptr %50, i32 0, i32 133
  %52 = load ptr, ptr %51, align 8, !tbaa !22
  %53 = getelementptr inbounds nuw %struct.ARKodeRootMemRec, ptr %52, i32 0, i32 2
  %54 = load ptr, ptr %53, align 8, !tbaa !29
  call void @free(ptr noundef %54) #6
  %55 = load ptr, ptr %4, align 8, !tbaa !9
  %56 = getelementptr inbounds nuw %struct.ARKodeMemRec, ptr %55, i32 0, i32 133
  %57 = load ptr, ptr %56, align 8, !tbaa !22
  %58 = getelementptr inbounds nuw %struct.ARKodeRootMemRec, ptr %57, i32 0, i32 2
  store ptr null, ptr %58, align 8, !tbaa !29
  %59 = load ptr, ptr %4, align 8, !tbaa !9
  %60 = getelementptr inbounds nuw %struct.ARKodeMemRec, ptr %59, i32 0, i32 133
  %61 = load ptr, ptr %60, align 8, !tbaa !22
  %62 = getelementptr inbounds nuw %struct.ARKodeRootMemRec, ptr %61, i32 0, i32 3
  %63 = load ptr, ptr %62, align 8, !tbaa !30
  call void @free(ptr noundef %63) #6
  %64 = load ptr, ptr %4, align 8, !tbaa !9
  %65 = getelementptr inbounds nuw %struct.ARKodeMemRec, ptr %64, i32 0, i32 133
  %66 = load ptr, ptr %65, align 8, !tbaa !22
  %67 = getelementptr inbounds nuw %struct.ARKodeRootMemRec, ptr %66, i32 0, i32 3
  store ptr null, ptr %67, align 8, !tbaa !30
  %68 = load ptr, ptr %4, align 8, !tbaa !9
  %69 = getelementptr inbounds nuw %struct.ARKodeMemRec, ptr %68, i32 0, i32 133
  %70 = load ptr, ptr %69, align 8, !tbaa !22
  %71 = getelementptr inbounds nuw %struct.ARKodeRootMemRec, ptr %70, i32 0, i32 15
  %72 = load ptr, ptr %71, align 8, !tbaa !34
  call void @free(ptr noundef %72) #6
  %73 = load ptr, ptr %4, align 8, !tbaa !9
  %74 = getelementptr inbounds nuw %struct.ARKodeMemRec, ptr %73, i32 0, i32 133
  %75 = load ptr, ptr %74, align 8, !tbaa !22
  %76 = getelementptr inbounds nuw %struct.ARKodeRootMemRec, ptr %75, i32 0, i32 15
  store ptr null, ptr %76, align 8, !tbaa !34
  %77 = load ptr, ptr %4, align 8, !tbaa !9
  %78 = getelementptr inbounds nuw %struct.ARKodeMemRec, ptr %77, i32 0, i32 133
  %79 = load ptr, ptr %78, align 8, !tbaa !22
  %80 = getelementptr inbounds nuw %struct.ARKodeRootMemRec, ptr %79, i32 0, i32 1
  %81 = load i32, ptr %80, align 8, !tbaa !32
  %82 = mul nsw i32 3, %81
  %83 = sext i32 %82 to i64
  %84 = load ptr, ptr %4, align 8, !tbaa !9
  %85 = getelementptr inbounds nuw %struct.ARKodeMemRec, ptr %84, i32 0, i32 115
  %86 = load i64, ptr %85, align 8, !tbaa !38
  %87 = sub nsw i64 %86, %83
  store i64 %87, ptr %85, align 8, !tbaa !38
  %88 = load ptr, ptr %4, align 8, !tbaa !9
  %89 = getelementptr inbounds nuw %struct.ARKodeMemRec, ptr %88, i32 0, i32 133
  %90 = load ptr, ptr %89, align 8, !tbaa !22
  %91 = getelementptr inbounds nuw %struct.ARKodeRootMemRec, ptr %90, i32 0, i32 1
  %92 = load i32, ptr %91, align 8, !tbaa !32
  %93 = mul nsw i32 3, %92
  %94 = sext i32 %93 to i64
  %95 = load ptr, ptr %4, align 8, !tbaa !9
  %96 = getelementptr inbounds nuw %struct.ARKodeMemRec, ptr %95, i32 0, i32 116
  %97 = load i64, ptr %96, align 8, !tbaa !39
  %98 = sub nsw i64 %97, %94
  store i64 %98, ptr %96, align 8, !tbaa !39
  br label %99

99:                                               ; preds = %22, %15
  %100 = load ptr, ptr %4, align 8, !tbaa !9
  %101 = getelementptr inbounds nuw %struct.ARKodeMemRec, ptr %100, i32 0, i32 133
  %102 = load ptr, ptr %101, align 8, !tbaa !22
  call void @free(ptr noundef %102) #6
  %103 = load ptr, ptr %4, align 8, !tbaa !9
  %104 = getelementptr inbounds nuw %struct.ARKodeMemRec, ptr %103, i32 0, i32 115
  %105 = load i64, ptr %104, align 8, !tbaa !38
  %106 = sub nsw i64 %105, 5
  store i64 %106, ptr %104, align 8, !tbaa !38
  %107 = load ptr, ptr %4, align 8, !tbaa !9
  %108 = getelementptr inbounds nuw %struct.ARKodeMemRec, ptr %107, i32 0, i32 116
  %109 = load i64, ptr %108, align 8, !tbaa !39
  %110 = sub nsw i64 %109, 12
  store i64 %110, ptr %108, align 8, !tbaa !39
  br label %111

111:                                              ; preds = %99, %9
  store i32 0, ptr %2, align 4
  store i32 1, ptr %5, align 4
  br label %112

112:                                              ; preds = %111, %8
  call void @llvm.lifetime.end.p0(i64 8, ptr %4) #6
  %113 = load i32, ptr %2, align 4
  ret i32 %113
}