; Function Attrs: nounwind uwtable
define range(i32 -21, 1) i32 @arkRootFree(ptr noundef captures(address_is_null) %0) local_unnamed_addr #0 {
  %2 = icmp eq ptr %0, null
  br i1 %2, label %3, label %4

3:                                                ; preds = %1
  tail call void (ptr, i32, i32, ptr, ptr, ptr, ...) @arkProcessError(ptr noundef null, i32 noundef -21, i32 noundef 289, ptr noundef nonnull @__func__.arkRootFree, ptr noundef nonnull @.str, ptr noundef nonnull @.str.1) #8
  br label %54

4:                                                ; preds = %1
  %5 = getelementptr inbounds nuw i8, ptr %0, i64 984
  %6 = load ptr, ptr %5, align 8, !tbaa !18
  %.not = icmp eq ptr %6, null
  br i1 %.not, label %54, label %7

7:                                                ; preds = %4
  %8 = getelementptr inbounds nuw i8, ptr %6, i64 8
  %9 = load i32, ptr %8, align 8, !tbaa !23
  %10 = icmp sgt i32 %9, 0
  br i1 %10, label %11, label %46

11:                                               ; preds = %7
  %12 = getelementptr inbounds nuw i8, ptr %6, i64 56
  %13 = load ptr, ptr %12, align 8, !tbaa !31
  tail call void @free(ptr noundef %13) #8
  %14 = load ptr, ptr %5, align 8, !tbaa !18
  %15 = getelementptr inbounds nuw i8, ptr %14, i64 56
  store ptr null, ptr %15, align 8, !tbaa !31
  %16 = getelementptr inbounds nuw i8, ptr %14, i64 64
  %17 = load ptr, ptr %16, align 8, !tbaa !32
  tail call void @free(ptr noundef %17) #8
  %18 = load ptr, ptr %5, align 8, !tbaa !18
  %19 = getelementptr inbounds nuw i8, ptr %18, i64 64
  store ptr null, ptr %19, align 8, !tbaa !32
  %20 = getelementptr inbounds nuw i8, ptr %18, i64 72
  %21 = load ptr, ptr %20, align 8, !tbaa !33
  tail call void @free(ptr noundef %21) #8
  %22 = load ptr, ptr %5, align 8, !tbaa !18
  %23 = getelementptr inbounds nuw i8, ptr %22, i64 72
  store ptr null, ptr %23, align 8, !tbaa !33
  %24 = getelementptr inbounds nuw i8, ptr %22, i64 16
  %25 = load ptr, ptr %24, align 8, !tbaa !34
  tail call void @free(ptr noundef %25) #8
  %26 = load ptr, ptr %5, align 8, !tbaa !18
  %27 = getelementptr inbounds nuw i8, ptr %26, i64 16
  store ptr null, ptr %27, align 8, !tbaa !34
  %28 = getelementptr inbounds nuw i8, ptr %26, i64 24
  %29 = load ptr, ptr %28, align 8, !tbaa !35
  tail call void @free(ptr noundef %29) #8
  %30 = load ptr, ptr %5, align 8, !tbaa !18
  %31 = getelementptr inbounds nuw i8, ptr %30, i64 24
  store ptr null, ptr %31, align 8, !tbaa !35
  %32 = getelementptr inbounds nuw i8, ptr %30, i64 112
  %33 = load ptr, ptr %32, align 8, !tbaa !25
  tail call void @free(ptr noundef %33) #8
  %34 = load ptr, ptr %5, align 8, !tbaa !18
  %35 = getelementptr inbounds nuw i8, ptr %34, i64 112
  store ptr null, ptr %35, align 8, !tbaa !25
  %36 = getelementptr inbounds nuw i8, ptr %34, i64 8
  %37 = load i32, ptr %36, align 8, !tbaa !23
  %38 = mul nsw i32 %37, 3
  %39 = sext i32 %38 to i64
  %40 = getelementptr inbounds nuw i8, ptr %0, i64 872
  %41 = load i64, ptr %40, align 8, !tbaa !29
  %42 = sub nsw i64 %41, %39
  store i64 %42, ptr %40, align 8, !tbaa !29
  %43 = getelementptr inbounds nuw i8, ptr %0, i64 880
  %44 = load i64, ptr %43, align 8, !tbaa !30
  %45 = sub nsw i64 %44, %39
  store i64 %45, ptr %43, align 8, !tbaa !30
  br label %46

46:                                               ; preds = %11, %7
  %47 = phi ptr [ %34, %11 ], [ %6, %7 ]
  tail call void @free(ptr noundef nonnull %47) #8
  %48 = getelementptr inbounds nuw i8, ptr %0, i64 872
  %49 = load i64, ptr %48, align 8, !tbaa !29
  %50 = add nsw i64 %49, -5
  store i64 %50, ptr %48, align 8, !tbaa !29
  %51 = getelementptr inbounds nuw i8, ptr %0, i64 880
  %52 = load i64, ptr %51, align 8, !tbaa !30
  %53 = add nsw i64 %52, -12
  store i64 %53, ptr %51, align 8, !tbaa !30
  br label %54

54:                                               ; preds = %4, %46, %3
  %.0 = phi i32 [ -21, %3 ], [ 0, %46 ], [ 0, %4 ]
  ret i32 %.0
}